; Function Attrs: nounwind uwtable
define dso_local void @ExecEndNestLoop(ptr noundef readonly captures(none) %0) local_unnamed_addr #0 {
  %2 = getelementptr inbounds nuw i8, ptr %0, i64 72
  %3 = load ptr, ptr %2, align 8
  tail call void @ExecEndNode(ptr noundef %3) #5
  %4 = getelementptr inbounds nuw i8, ptr %0, i64 80
  %5 = load ptr, ptr %4, align 8
  tail call void @ExecEndNode(ptr noundef %5) #5
  ret void
}